; Function Attrs: mustprogress uwtable
define dso_local noundef ptr @_ZN4Luau9TypeArena9freshTypeEPNS_5ScopeENS_9TypeLevelE(ptr noundef nonnull align 8 dereferenceable(88) %0, ptr noundef %1, i64 %2) local_unnamed_addr #1 align 2 personality ptr @__gxx_personality_v0 {
  %.sroa.1.i = alloca [48 x i8], align 8
  %4 = alloca %"struct.Luau::FreeType", align 8
  call void @_ZN4Luau8FreeTypeC1EPNS_5ScopeENS_9TypeLevelE(ptr noundef nonnull align 8 dereferenceable(48) %4, ptr noundef %1, i64 %2)
  call void @llvm.lifetime.start.p0(i64 48, ptr nonnull %.sroa.1.i)
  %5 = getelementptr inbounds nuw i8, ptr %0, i64 32
  %6 = load i64, ptr %5, align 8
  %7 = icmp ugt i64 %6, 80
  br i1 %7, label %8, label %_ZN4Luau14TypedAllocatorINS_4TypeEE8allocateIJNS_8FreeTypeEEEEPS1_DpOT_.exit

8:                                                ; preds = %3
  call void @_ZN4Luau14TypedAllocatorINS_4TypeEE11appendBlockEv(ptr noundef nonnull align 8 dereferenceable(40) %0)
  %.pre.i = load i64, ptr %5, align 8
  br label %_ZN4Luau14TypedAllocatorINS_4TypeEE8allocateIJNS_8FreeTypeEEEEPS1_DpOT_.exit

_ZN4Luau14TypedAllocatorINS_4TypeEE8allocateIJNS_8FreeTypeEEEEPS1_DpOT_.exit: ; preds = %3, %8
  %9 = phi i64 [ %.pre.i, %8 ], [ %6, %3 ]
  %10 = getelementptr inbounds nuw i8, ptr %0, i64 16
  %11 = load ptr, ptr %10, align 8
  %12 = getelementptr inbounds i8, ptr %11, i64 -8
  %13 = load ptr, ptr %12, align 8
  %14 = getelementptr inbounds %"struct.Luau::Type", ptr %13, i64 %9
  call void @llvm.memcpy.p0.p0.i64(ptr noundef nonnull align 8 dereferenceable(48) %.sroa.1.i, ptr noundef nonnull align 8 dereferenceable(48) %4, i64 48, i1 false)
  store i32 2, ptr %14, align 8
  %15 = getelementptr inbounds nuw i8, ptr %14, i64 8
  call void @llvm.memcpy.p0.p0.i64(ptr noundef nonnull align 8 dereferenceable(48) %15, ptr noundef nonnull align 8 dereferenceable(48) %.sroa.1.i, i64 48, i1 false)
  %16 = getelementptr inbounds nuw i8, ptr %14, i64 344
  store i8 0, ptr %16, align 8
  %17 = getelementptr inbounds nuw i8, ptr %14, i64 384
  store i8 0, ptr %17, align 8
  %18 = getelementptr inbounds nuw i8, ptr %14, i64 392
  store ptr null, ptr %18, align 8
  %19 = load i64, ptr %5, align 8
  %20 = add i64 %19, 1
  store i64 %20, ptr %5, align 8
  call void @llvm.lifetime.end.p0(i64 48, ptr nonnull %.sroa.1.i)
  %21 = call noundef ptr @_ZN4Luau9asMutableEPKNS_4TypeE(ptr noundef nonnull %14)
  %22 = getelementptr inbounds nuw i8, ptr %21, i64 392
  store ptr %0, ptr %22, align 8
  ret ptr %14
}